target datalayout = "e-m:e-p270:32:32-p271:32:32-p272:64:64-i64:64-i128:128-f80:128-n8:16:32:64-S128"
target triple = "x86_64-pc-linux-gnu"

%struct.Scl_Item_t_ = type { i32, i32, %struct.Scl_Pair_t_, %struct.Scl_Pair_t_, %struct.Scl_Pair_t_, i32, i32 }
%struct.Scl_Pair_t_ = type { i32, i32 }
%struct.Scl_Tree_t_ = type { ptr, ptr, i64, i32, i32, i32, ptr, ptr, i64, ptr }

@.str.76 = private unnamed_addr constant [13 x i8] c"timing_sense\00", align 1
@.str.77 = private unnamed_addr constant [15 x i8] c"positive_unate\00", align 1
@.str.78 = private unnamed_addr constant [15 x i8] c"negative_unate\00", align 1
@.str.79 = private unnamed_addr constant [10 x i8] c"non_unate\00", align 1

; Function Attrs: nounwind uwtable
define internal i32 @Scl_LibertyCompare(ptr noundef %0, i64 %1, ptr noundef %2) #0 {
  %4 = alloca %struct.Scl_Pair_t_, align 4
  %5 = alloca ptr, align 8
  %6 = alloca ptr, align 8
  store i64 %1, ptr %4, align 4
  store ptr %0, ptr %5, align 8
  store ptr %2, ptr %6, align 8
  %7 = load ptr, ptr %5, align 8
  %8 = getelementptr inbounds %struct.Scl_Tree_t_, ptr %7, i32 0, i32 1
  %9 = load ptr, ptr %8, align 8
  %10 = getelementptr inbounds %struct.Scl_Pair_t_, ptr %4, i32 0, i32 0
  %11 = load i32, ptr %10, align 4
  %12 = sext i32 %11 to i64
  %13 = getelementptr inbounds i8, ptr %9, i64 %12
  %14 = load ptr, ptr %6, align 8
  %15 = getelementptr inbounds %struct.Scl_Pair_t_, ptr %4, i32 0, i32 1
  %16 = load i32, ptr %15, align 4
  %17 = getelementptr inbounds %struct.Scl_Pair_t_, ptr %4, i32 0, i32 0
  %18 = load i32, ptr %17, align 4
  %19 = sub nsw i32 %16, %18
  %20 = sext i32 %19 to i64
  %21 = call i32 @strncmp(ptr noundef %13, ptr noundef %14, i64 noundef %20) #11
  %22 = icmp ne i32 %21, 0
  br i1 %22, label %33, label %23

23:                                               ; preds = %3
  %24 = load ptr, ptr %6, align 8
  %25 = call i64 @strlen(ptr noundef %24) #11
  %26 = trunc i64 %25 to i32
  %27 = getelementptr inbounds %struct.Scl_Pair_t_, ptr %4, i32 0, i32 1
  %28 = load i32, ptr %27, align 4
  %29 = getelementptr inbounds %struct.Scl_Pair_t_, ptr %4, i32 0, i32 0
  %30 = load i32, ptr %29, align 4
  %31 = sub nsw i32 %28, %30
  %32 = icmp ne i32 %26, %31
  br label %33

33:                                               ; preds = %23, %3
  %34 = phi i1 [ true, %3 ], [ %32, %23 ]
  %35 = zext i1 %34 to i32
  ret i32 %35
}

; Function Attrs: nounwind uwtable
define internal ptr @Scl_LibertyItem(ptr noundef %0, i32 noundef %1) #0 {
  %3 = alloca ptr, align 8
  %4 = alloca i32, align 4
  store ptr %0, ptr %3, align 8
  store i32 %1, ptr %4, align 4
  %5 = load i32, ptr %4, align 4
  %6 = icmp slt i32 %5, 0
  br i1 %6, label %7, label %8

7:                                                ; preds = %2
  br label %15

8:                                                ; preds = %2
  %9 = load ptr, ptr %3, align 8
  %10 = getelementptr inbounds %struct.Scl_Tree_t_, ptr %9, i32 0, i32 6
  %11 = load ptr, ptr %10, align 8
  %12 = load i32, ptr %4, align 4
  %13 = sext i32 %12 to i64
  %14 = getelementptr inbounds %struct.Scl_Item_t_, ptr %11, i64 %13
  br label %15

15:                                               ; preds = %8, %7
  %16 = phi ptr [ null, %7 ], [ %14, %8 ]
  ret ptr %16
}

; Function Attrs: nounwind uwtable
define i32 @Scl_LibertyReadTimingSense(ptr noundef %0, ptr noundef %1) #0 {
  %3 = alloca i32, align 4
  %4 = alloca ptr, align 8
  %5 = alloca ptr, align 8
  %6 = alloca ptr, align 8
  %7 = alloca ptr, align 8
  store ptr %0, ptr %4, align 8
  store ptr %1, ptr %5, align 8
  %8 = load ptr, ptr %4, align 8
  %9 = load ptr, ptr %5, align 8
  %10 = getelementptr inbounds %struct.Scl_Item_t_, ptr %9, i32 0, i32 6
  %11 = load i32, ptr %10, align 4
  %12 = call ptr @Scl_LibertyItem(ptr noundef %8, i32 noundef %11)
  store ptr %12, ptr %6, align 8
  br label %13

13:                                               ; preds = %46, %2
  %14 = load ptr, ptr %6, align 8
  %15 = icmp ne ptr %14, null
  br i1 %15, label %16, label %52

16:                                               ; preds = %13
  %17 = load ptr, ptr %4, align 8
  %18 = load ptr, ptr %6, align 8
  %19 = getelementptr inbounds %struct.Scl_Item_t_, ptr %18, i32 0, i32 2
  %20 = load i64, ptr %19, align 4
  %21 = call i32 @Scl_LibertyCompare(ptr noundef %17, i64 %20, ptr noundef @.str.76)
  %22 = icmp ne i32 %21, 0
  br i1 %22, label %23, label %24

23:                                               ; preds = %16
  br label %45

24:                                               ; preds = %16
  %25 = load ptr, ptr %4, align 8
  %26 = load ptr, ptr %6, align 8
  %27 = getelementptr inbounds %struct.Scl_Item_t_, ptr %26, i32 0, i32 3
  %28 = load i64, ptr %27, align 4
  %29 = call ptr @Scl_LibertyReadString(ptr noundef %25, i64 %28)
  store ptr %29, ptr %7, align 8
  %30 = load ptr, ptr %7, align 8
  %31 = call i32 @strcmp(ptr noundef %30, ptr noundef @.str.77) #11
  %32 = icmp ne i32 %31, 0
  br i1 %32, label %34, label %33

33:                                               ; preds = %24
  store i32 1, ptr %3, align 4
  br label %53

34:                                               ; preds = %24
  %35 = load ptr, ptr %7, align 8
  %36 = call i32 @strcmp(ptr noundef %35, ptr noundef @.str.78) #11
  %37 = icmp ne i32 %36, 0
  br i1 %37, label %39, label %38

38:                                               ; preds = %34
  store i32 2, ptr %3, align 4
  br label %53

39:                                               ; preds = %34
  %40 = load ptr, ptr %7, align 8
  %41 = call i32 @strcmp(ptr noundef %40, ptr noundef @.str.79) #11
  %42 = icmp ne i32 %41, 0
  br i1 %42, label %44, label %43

43:                                               ; preds = %39
  store i32 3, ptr %3, align 4
  br label %53

44:                                               ; preds = %39
  br label %52

45:                                               ; preds = %23
  br label %46

46:                                               ; preds = %45
  %47 = load ptr, ptr %4, align 8
  %48 = load ptr, ptr %6, align 8
  %49 = getelementptr inbounds %struct.Scl_Item_t_, ptr %48, i32 0, i32 5
  %50 = load i32, ptr %49, align 4
  %51 = call ptr @Scl_LibertyItem(ptr noundef %47, i32 noundef %50)
  store ptr %51, ptr %6, align 8
  br label %13, !llvm.loop !57

52:                                               ; preds = %44, %13
  store i32 3, ptr %3, align 4
  br label %53

53:                                               ; preds = %52, %43, %38, %33
  %54 = load i32, ptr %3, align 4
  ret i32 %54
}