; Function Attrs: nounwind uwtable
define range(i32 1, 4) i32 @Scl_LibertyReadTimingSense(ptr noundef readonly captures(none) %0, ptr noundef readonly captures(none) %1) local_unnamed_addr #4 {
  %3 = getelementptr inbounds nuw i8, ptr %1, i64 36
  %4 = load i32, ptr %3, align 4
  %5 = icmp slt i32 %4, 0
  br i1 %5, label %.loopexit, label %Scl_LibertyItem.exit

Scl_LibertyItem.exit:                             ; preds = %2
  %6 = getelementptr inbounds nuw i8, ptr %0, i64 40
  %7 = load ptr, ptr %6, align 8
  %.not21 = icmp eq ptr %7, null
  br i1 %.not21, label %.loopexit, label %.lr.ph

.lr.ph:                                           ; preds = %Scl_LibertyItem.exit
  %8 = zext nneg i32 %4 to i64
  %9 = getelementptr inbounds nuw %struct.Scl_Item_t_, ptr %7, i64 %8
  %10 = getelementptr i8, ptr %0, i64 8
  %.val = load ptr, ptr %10, align 8
  %11 = getelementptr inbounds nuw i8, ptr %0, i64 40
  br label %12

12:                                               ; preds = %.lr.ph, %Scl_LibertyItem.exit17
  %.01222 = phi ptr [ %9, %.lr.ph ], [ %32, %Scl_LibertyItem.exit17 ]
  %13 = getelementptr inbounds nuw i8, ptr %.01222, i64 8
  %14 = load i64, ptr %13, align 4
  %.sroa.0.0.extract.trunc.i = trunc i64 %14 to i32
  %.sroa.4.0.extract.shift.i = lshr i64 %14, 32
  %.sroa.4.0.extract.trunc.i = trunc nuw i64 %.sroa.4.0.extract.shift.i to i32
  %sext.i = shl i64 %14, 32
  %15 = ashr exact i64 %sext.i, 32
  %16 = getelementptr inbounds i8, ptr %.val, i64 %15
  %17 = sub nsw i32 %.sroa.4.0.extract.trunc.i, %.sroa.0.0.extract.trunc.i
  %18 = sext i32 %17 to i64
  %19 = tail call i32 @strncmp(ptr noundef readonly %16, ptr noundef nonnull @.str.76, i64 noundef %18) #30
  %.not.i = icmp eq i32 %19, 0
  %.not19 = icmp eq i32 %17, 12
  %or.cond = and i1 %.not.i, %.not19
  br i1 %or.cond, label %20, label %Scl_LibertyCompare.exit.thread

20:                                               ; preds = %12
  %21 = getelementptr inbounds nuw i8, ptr %.01222, i64 16
  %22 = load i64, ptr %21, align 4
  %23 = tail call ptr @Scl_LibertyReadString(ptr noundef nonnull %0, i64 %22)
  %24 = tail call i32 @strcmp(ptr noundef nonnull dereferenceable(1) %23, ptr noundef nonnull dereferenceable(15) @.str.77) #30
  %.not14 = icmp eq i32 %24, 0
  br i1 %.not14, label %.loopexit, label %25

25:                                               ; preds = %20
  %26 = tail call i32 @strcmp(ptr noundef nonnull dereferenceable(1) %23, ptr noundef nonnull dereferenceable(15) @.str.78) #30
  %.not15 = icmp eq i32 %26, 0
  %spec.select = select i1 %.not15, i32 2, i32 3
  br label %.loopexit

Scl_LibertyCompare.exit.thread:                   ; preds = %12
  %27 = getelementptr inbounds nuw i8, ptr %.01222, i64 32
  %28 = load i32, ptr %27, align 4
  %29 = icmp slt i32 %28, 0
  br i1 %29, label %.loopexit, label %Scl_LibertyItem.exit17

Scl_LibertyItem.exit17:                           ; preds = %Scl_LibertyCompare.exit.thread
  %30 = load ptr, ptr %11, align 8
  %31 = zext nneg i32 %28 to i64
  %32 = getelementptr inbounds nuw %struct.Scl_Item_t_, ptr %30, i64 %31
  %.not = icmp eq ptr %30, null
  br i1 %.not, label %.loopexit, label %12, !llvm.loop !58

.loopexit:                                        ; preds = %Scl_LibertyCompare.exit.thread, %Scl_LibertyItem.exit17, %2, %Scl_LibertyItem.exit, %25, %20
  %.0 = phi i32 [ 1, %20 ], [ %spec.select, %25 ], [ 3, %Scl_LibertyItem.exit ], [ 3, %2 ], [ 3, %Scl_LibertyItem.exit17 ], [ 3, %Scl_LibertyCompare.exit.thread ]
  ret i32 %.0
}